target datalayout = "e-m:e-p270:32:32-p271:32:32-p272:64:64-i64:64-i128:128-f80:128-n8:16:32:64-S128"
target triple = "x86_64-unknown-linux-gnu"

; Function Attrs: fn_ret_thunk_extern nounwind null_pointer_is_valid
define dso_local void @_intel_modeset_lock_begin(ptr noundef %0, ptr noundef writeonly %1, i32 noundef %2, ptr nocapture noundef writeonly %3) local_unnamed_addr #0 align 16 {
  tail call void @drm_modeset_acquire_init(ptr noundef %0, i32 noundef %2) #3
  %5 = icmp eq ptr %1, null
  br i1 %5, label %8, label %6

6:                                                ; preds = %4
  %7 = getelementptr inbounds i8, ptr %1, i64 72
  store ptr %0, ptr %7, align 8
  br label %8

8:                                                ; preds = %6, %4
  store i32 -35, ptr %3, align 4
  ret void
}

; Function Attrs: null_pointer_is_valid
declare dso_local void @drm_modeset_acquire_init(ptr noundef, i32 noundef) local_unnamed_addr #1

; Function Attrs: fn_ret_thunk_extern mustprogress nofree norecurse nosync nounwind null_pointer_is_valid willreturn memory(argmem: readwrite)
define dso_local noundef zeroext i1 @_intel_modeset_lock_loop(ptr nocapture noundef %0) local_unnamed_addr #2 align 16 {
  %2 = load i32, ptr %0, align 4
  %3 = icmp eq i32 %2, -35
  br i1 %3, label %4, label %5

4:                                                ; preds = %1
  store i32 0, ptr %0, align 4
  br label %5

5:                                                ; preds = %4, %1
  ret i1 %3
}

; Function Attrs: fn_ret_thunk_extern nounwind null_pointer_is_valid
define dso_local void @_intel_modeset_lock_end(ptr noundef %0, ptr noundef %1, ptr nocapture noundef %2) local_unnamed_addr #0 align 16 {
  %4 = load i32, ptr %2, align 4
  %5 = icmp eq i32 %4, -35
  br i1 %5, label %6, label %13

6:                                                ; preds = %3
  %7 = icmp eq ptr %1, null
  br i1 %7, label %9, label %8

8:                                                ; preds = %6
  tail call void @drm_atomic_state_clear(ptr noundef nonnull %1) #3
  br label %9

9:                                                ; preds = %8, %6
  %10 = tail call i32 @drm_modeset_backoff(ptr noundef %0) #3
  store i32 %10, ptr %2, align 4
  %11 = icmp eq i32 %10, 0
  br i1 %11, label %12, label %13

12:                                               ; preds = %9
  store i32 -35, ptr %2, align 4
  br label %14

13:                                               ; preds = %9, %3
  tail call void @drm_modeset_drop_locks(ptr noundef %0) #3
  tail call void @drm_modeset_acquire_fini(ptr noundef %0) #3
  br label %14

14:                                               ; preds = %13, %12
  ret void
}

; Function Attrs: null_pointer_is_valid
declare dso_local void @drm_atomic_state_clear(ptr noundef) local_unnamed_addr #1

; Function Attrs: null_pointer_is_valid
declare dso_local i32 @drm_modeset_backoff(ptr noundef) local_unnamed_addr #1

; Function Attrs: null_pointer_is_valid
declare dso_local void @drm_modeset_drop_locks(ptr noundef) local_unnamed_addr #1

; Function Attrs: null_pointer_is_valid
declare dso_local void @drm_modeset_acquire_fini(ptr noundef) local_unnamed_addr #1


!llvm.module.flags = !{!0, !1, !2, !3, !4}

!0 = !{i32 1, !"wchar_size", i32 2}
!1 = !{i32 8, !"cf-protection-branch", i32 1}
!2 = !{i32 4, !"function_return_thunk_extern", i32 1}
!3 = !{i32 4, !"indirect_branch_cs_prefix", i32 1}
!4 = !{i32 4, !"SkipRaxSetup", i32 1}
